target datalayout = "e-m:e-p270:32:32-p271:32:32-p272:64:64-i64:64-i128:128-f80:128-n8:16:32:64-S128"
target triple = "x86_64-pc-linux-gnu"

%struct.png_color_8_struct = type { i8, i8, i8, i8, i8 }
%struct.png_color_16_struct = type { i8, i16, i16, i16, i16 }
%struct.png_colorspace = type { i32, %struct.png_xy, %struct.png_XYZ, i16, i16 }
%struct.png_xy = type { i32, i32, i32, i32, i32, i32, i32, i32 }
%struct.png_XYZ = type { i32, i32, i32, i32, i32, i32, i32, i32, i32 }
%struct.png_info_def = type { i32, i32, i32, i64, ptr, i16, i16, i8, i8, i8, i8, i8, i8, i8, i8, [8 x i8], %struct.png_colorspace, ptr, ptr, i32, i32, i32, ptr, %struct.png_time_struct, %struct.png_color_8_struct, ptr, %struct.png_color_16_struct, %struct.png_color_16_struct, i32, i32, i8, i32, i32, i8, i32, ptr, ptr, ptr, ptr, i32, i32, ptr, ptr, i8, i8, i32, ptr, i32, ptr, i32, i8, ptr, ptr, ptr }
%struct.png_time_struct = type { i16, i8, i8, i8, i8, i8 }

@.str.1 = private unnamed_addr constant [11 x i8] c"sCAL width\00", align 1
@.str.2 = private unnamed_addr constant [12 x i8] c"sCAL height\00", align 1

; Function Attrs: nounwind uwtable
define i32 @png_get_sCAL_fixed(ptr noalias noundef %0, ptr noalias noundef %1, ptr noundef %2, ptr noundef %3, ptr noundef %4) #0 {
  %6 = alloca i32, align 4
  %7 = alloca ptr, align 8
  %8 = alloca ptr, align 8
  %9 = alloca ptr, align 8
  %10 = alloca ptr, align 8
  %11 = alloca ptr, align 8
  store ptr %0, ptr %7, align 8
  store ptr %1, ptr %8, align 8
  store ptr %2, ptr %9, align 8
  store ptr %3, ptr %10, align 8
  store ptr %4, ptr %11, align 8
  %12 = load ptr, ptr %7, align 8
  %13 = icmp ne ptr %12, null
  br i1 %13, label %14, label %43

14:                                               ; preds = %5
  %15 = load ptr, ptr %8, align 8
  %16 = icmp ne ptr %15, null
  br i1 %16, label %17, label %43

17:                                               ; preds = %14
  %18 = load ptr, ptr %8, align 8
  %19 = getelementptr inbounds %struct.png_info_def, ptr %18, i32 0, i32 2
  %20 = load i32, ptr %19, align 8
  %21 = and i32 %20, 16384
  %22 = icmp ne i32 %21, 0
  br i1 %22, label %23, label %43

23:                                               ; preds = %17
  %24 = load ptr, ptr %8, align 8
  %25 = getelementptr inbounds %struct.png_info_def, ptr %24, i32 0, i32 50
  %26 = load i8, ptr %25, align 4
  %27 = zext i8 %26 to i32
  %28 = load ptr, ptr %9, align 8
  store i32 %27, ptr %28, align 4
  %29 = load ptr, ptr %7, align 8
  %30 = load ptr, ptr %8, align 8
  %31 = getelementptr inbounds %struct.png_info_def, ptr %30, i32 0, i32 51
  %32 = load ptr, ptr %31, align 8
  %33 = call double @atof(ptr noundef %32) #4
  %34 = call i32 @png_fixed(ptr noundef %29, double noundef %33, ptr noundef @.str.1)
  %35 = load ptr, ptr %10, align 8
  store i32 %34, ptr %35, align 4
  %36 = load ptr, ptr %7, align 8
  %37 = load ptr, ptr %8, align 8
  %38 = getelementptr inbounds %struct.png_info_def, ptr %37, i32 0, i32 52
  %39 = load ptr, ptr %38, align 8
  %40 = call double @atof(ptr noundef %39) #4
  %41 = call i32 @png_fixed(ptr noundef %36, double noundef %40, ptr noundef @.str.2)
  %42 = load ptr, ptr %11, align 8
  store i32 %41, ptr %42, align 4
  store i32 16384, ptr %6, align 4
  br label %44

43:                                               ; preds = %17, %14, %5
  store i32 0, ptr %6, align 4
  br label %44

44:                                               ; preds = %43, %23
  %45 = load i32, ptr %6, align 4
  ret i32 %45
}