; Function Attrs: nounwind uwtable
define range(i32 0, 16385) i32 @png_get_sCAL_fixed(ptr noalias noundef %0, ptr noalias noundef readonly %1, ptr nocapture noundef writeonly %2, ptr nocapture noundef writeonly %3, ptr nocapture noundef writeonly %4) local_unnamed_addr #1 {
  %6 = icmp ne ptr %0, null
  %7 = icmp ne ptr %1, null
  %or.cond = and i1 %6, %7
  br i1 %or.cond, label %8, label %24

8:                                                ; preds = %5
  %9 = getelementptr inbounds i8, ptr %1, i64 8
  %10 = load i32, ptr %9, align 8
  %11 = and i32 %10, 16384
  %.not = icmp eq i32 %11, 0
  br i1 %.not, label %24, label %12

12:                                               ; preds = %8
  %13 = getelementptr inbounds i8, ptr %1, i64 332
  %14 = load i8, ptr %13, align 4
  %15 = zext i8 %14 to i32
  store i32 %15, ptr %2, align 4
  %16 = getelementptr inbounds i8, ptr %1, i64 336
  %17 = load ptr, ptr %16, align 8
  %18 = tail call double @atof(ptr noundef %17) #11
  %19 = tail call i32 @png_fixed(ptr noundef nonnull %0, double noundef %18, ptr noundef nonnull @.str.1) #10
  store i32 %19, ptr %3, align 4
  %20 = getelementptr inbounds i8, ptr %1, i64 344
  %21 = load ptr, ptr %20, align 8
  %22 = tail call double @atof(ptr noundef %21) #11
  %23 = tail call i32 @png_fixed(ptr noundef nonnull %0, double noundef %22, ptr noundef nonnull @.str.2) #10
  store i32 %23, ptr %4, align 4
  br label %24

24:                                               ; preds = %5, %8, %12
  %.0 = phi i32 [ 16384, %12 ], [ 0, %8 ], [ 0, %5 ]
  ret i32 %.0
}